target datalayout = "e-m:e-p270:32:32-p271:32:32-p272:64:64-i64:64-i128:128-f80:128-n8:16:32:64-S128"
target triple = "x86_64-unknown-linux-gnu"

%"class.v8::IndirectHandleBase" = type { ptr }
%"class.v8::Local" = type { %"class.v8::LocalBase" }
%"class.v8::LocalBase" = type { %"class.v8::IndirectHandleBase" }
%"class.v8::LocalBase.48" = type { %"class.v8::IndirectHandleBase" }
%"class.v8::Local.47" = type { %"class.v8::LocalBase.48" }
%"class.v8impl::(anonymous namespace)::CallbackWrapper" = type { ptr, ptr, i64, ptr }
%"class.v8impl::(anonymous namespace)::CallbackWrapperBase" = type { %"class.v8impl::(anonymous namespace)::CallbackWrapper", ptr, ptr }
%"class.v8::FunctionCallbackInfo" = type <{ ptr, ptr, i32, [4 x i8] }>

; Function Attrs: mustprogress nounwind uwtable
define linkonce_odr dso_local noundef ptr @_ZN6v8impl23JsValueFromV8LocalValueEN2v85LocalINS0_5ValueEEE(ptr %local.coerce) #4 comdat {
entry:
  %slot.addr.i = alloca ptr, align 8
  %this.addr.i.i3 = alloca ptr, align 8
  %this.addr.i4 = alloca ptr, align 8
  %this.addr.i.i = alloca ptr, align 8
  %this.addr.i = alloca ptr, align 8
  %local = alloca %"class.v8::Local", align 8
  %coerce.dive = getelementptr inbounds %"class.v8::Local", ptr %local, i32 0, i32 0
  %coerce.dive1 = getelementptr inbounds %"class.v8::LocalBase", ptr %coerce.dive, i32 0, i32 0
  %coerce.dive2 = getelementptr inbounds %"class.v8::IndirectHandleBase", ptr %coerce.dive1, i32 0, i32 0
  store ptr %local.coerce, ptr %coerce.dive2, align 8
  store ptr %local, ptr %this.addr.i, align 8
  %this1.i = load ptr, ptr %this.addr.i, align 8
  store ptr %this1.i, ptr %this.addr.i.i, align 8
  %this1.i.i = load ptr, ptr %this.addr.i.i, align 8
  store ptr %this1.i.i, ptr %this.addr.i4, align 8
  %this1.i5 = load ptr, ptr %this.addr.i4, align 8
  store ptr %this1.i5, ptr %this.addr.i.i3, align 8
  %this1.i.i6 = load ptr, ptr %this.addr.i.i3, align 8
  %0 = load ptr, ptr %this1.i.i6, align 8
  store ptr %0, ptr %slot.addr.i, align 8
  %1 = load ptr, ptr %slot.addr.i, align 8
  ret ptr %1
}

; Function Attrs: mustprogress nounwind uwtable
define linkonce_odr dso_local noundef nonnull align 8 dereferenceable(8) ptr @_ZSt3minImERKT_S2_S2_(ptr noundef nonnull align 8 dereferenceable(8) %__a, ptr noundef nonnull align 8 dereferenceable(8) %__b) #4 comdat {
entry:
  %retval = alloca ptr, align 8
  %__a.addr = alloca ptr, align 8
  %__b.addr = alloca ptr, align 8
  store ptr %__a, ptr %__a.addr, align 8
  store ptr %__b, ptr %__b.addr, align 8
  %0 = load ptr, ptr %__b.addr, align 8
  %1 = load i64, ptr %0, align 8
  %2 = load ptr, ptr %__a.addr, align 8
  %3 = load i64, ptr %2, align 8
  %cmp = icmp ult i64 %1, %3
  br i1 %cmp, label %if.then, label %if.end

if.then:                                          ; preds = %entry
  %4 = load ptr, ptr %__b.addr, align 8
  store ptr %4, ptr %retval, align 8
  br label %return

if.end:                                           ; preds = %entry
  %5 = load ptr, ptr %__a.addr, align 8
  store ptr %5, ptr %retval, align 8
  br label %return

return:                                           ; preds = %if.end, %if.then
  %6 = load ptr, ptr %retval, align 8
  ret ptr %6
}

; Function Attrs: mustprogress nounwind uwtable
define internal void @_ZN6v8impl12_GLOBAL__N_123FunctionCallbackWrapper4ArgsEPP12napi_value__m(ptr noundef nonnull align 8 dereferenceable(48) %this, ptr noundef %buffer, i64 noundef %buffer_length) unnamed_addr #4 align 2 {
entry:
  %this.addr.i78 = alloca ptr, align 8
  %other.addr.i79 = alloca ptr, align 8
  %this.addr.i75 = alloca ptr, align 8
  %other.addr.i76 = alloca ptr, align 8
  %this.addr.i.i69 = alloca ptr, align 8
  %location.addr.i.i70 = alloca ptr, align 8
  %this.addr.i71 = alloca ptr, align 8
  %location.addr.i72 = alloca ptr, align 8
  %this.addr.i.i64 = alloca ptr, align 8
  %location.addr.i.i65 = alloca ptr, align 8
  %this.addr.i66 = alloca ptr, align 8
  %location.addr.i = alloca ptr, align 8
  %this.addr.i61 = alloca ptr, align 8
  %other.addr.i62 = alloca ptr, align 8
  %this.addr.i59 = alloca ptr, align 8
  %other.addr.i = alloca ptr, align 8
  %retval.i57 = alloca %"class.v8::LocalBase.48", align 8
  %slot.addr.i58 = alloca ptr, align 8
  %retval.i55 = alloca %"class.v8::LocalBase.48", align 8
  %slot.addr.i56 = alloca ptr, align 8
  %retval.i51 = alloca %"class.v8::Local.47", align 8
  %slot.addr.i52 = alloca ptr, align 8
  %ref.tmp.i53 = alloca %"class.v8::LocalBase.48", align 8
  %retval.i50 = alloca %"class.v8::Local.47", align 8
  %slot.addr.i = alloca ptr, align 8
  %ref.tmp.i = alloca %"class.v8::LocalBase.48", align 8
  %isolate.addr.i49 = alloca ptr, align 8
  %isolate.addr.i48 = alloca ptr, align 8
  %isolate.addr.i41 = alloca ptr, align 8
  %index.addr.i42 = alloca i32, align 4
  %addr.i43 = alloca i64, align 8
  %isolate.addr.i40 = alloca ptr, align 8
  %index.addr.i = alloca i32, align 4
  %addr.i = alloca i64, align 8
  %this.addr.i37 = alloca ptr, align 8
  %this.addr.i35 = alloca ptr, align 8
  %this.addr.i.i.i = alloca ptr, align 8
  %location.addr.i.i.i = alloca ptr, align 8
  %this.addr.i21.i = alloca ptr, align 8
  %location.addr.i.i = alloca ptr, align 8
  %this.addr.i20.i = alloca ptr, align 8
  %other.addr.i.i = alloca ptr, align 8
  %retval.i18.i = alloca %"class.v8::LocalBase", align 8
  %slot.addr.i19.i = alloca ptr, align 8
  %retval.i16.i = alloca %"class.v8::Local", align 8
  %slot.addr.i.i = alloca ptr, align 8
  %ref.tmp.i.i = alloca %"class.v8::LocalBase", align 8
  %that.i.i = alloca %"class.v8::Local.47", align 8
  %this.addr.i.i = alloca ptr, align 8
  %retval.i.i = alloca %"class.v8::Local.47", align 8
  %isolate.addr.i.i = alloca ptr, align 8
  %slot.i.i = alloca ptr, align 8
  %retval.i32 = alloca %"class.v8::Local", align 8
  %this.addr.i33 = alloca ptr, align 8
  %i.addr.i = alloca i32, align 4
  %agg.tmp.i = alloca %"class.v8::Local.47", align 8
  %that.i = alloca %"class.v8::Local.47", align 8
  %this.addr.i = alloca ptr, align 8
  %retval.i = alloca %"class.v8::Local.47", align 8
  %isolate.addr.i = alloca ptr, align 8
  %slot.i = alloca ptr, align 8
  %this.addr = alloca ptr, align 8
  %buffer.addr = alloca ptr, align 8
  %buffer_length.addr = alloca i64, align 8
  %i = alloca i64, align 8
  %min = alloca i64, align 8
  %agg.tmp = alloca %"class.v8::Local", align 8
  %undefined = alloca ptr, align 8
  %agg.tmp10 = alloca %"class.v8::Local", align 8
  %agg.tmp11 = alloca %"class.v8::Local.47", align 8
  store ptr %this, ptr %this.addr, align 8
  store ptr %buffer, ptr %buffer.addr, align 8
  store i64 %buffer_length, ptr %buffer_length.addr, align 8
  %this1 = load ptr, ptr %this.addr, align 8
  store i64 0, ptr %i, align 8
  %_args_length = getelementptr inbounds %"class.v8impl::(anonymous namespace)::CallbackWrapper", ptr %this1, i32 0, i32 2
  %call = call noundef nonnull align 8 dereferenceable(8) ptr @_ZSt3minImERKT_S2_S2_(ptr noundef nonnull align 8 dereferenceable(8) %buffer_length.addr, ptr noundef nonnull align 8 dereferenceable(8) %_args_length)
  %0 = load i64, ptr %call, align 8
  store i64 %0, ptr %min, align 8
  br label %for.cond

for.cond:                                         ; preds = %for.inc, %entry
  %1 = load i64, ptr %i, align 8
  %2 = load i64, ptr %min, align 8
  %cmp = icmp ult i64 %1, %2
  br i1 %cmp, label %for.body, label %for.end

for.body:                                         ; preds = %for.cond
  %_cbinfo = getelementptr inbounds %"class.v8impl::(anonymous namespace)::CallbackWrapperBase", ptr %this1, i32 0, i32 1
  %3 = load ptr, ptr %_cbinfo, align 8
  %4 = load i64, ptr %i, align 8
  %conv = trunc i64 %4 to i32
  store ptr %3, ptr %this.addr.i33, align 8
  store i32 %conv, ptr %i.addr.i, align 4
  %this1.i = load ptr, ptr %this.addr.i33, align 8
  %5 = load i32, ptr %i.addr.i, align 4
  %cmp.i = icmp slt i32 %5, 0
  br i1 %cmp.i, label %if.then.i, label %lor.lhs.false.i

lor.lhs.false.i:                                  ; preds = %for.body
  %length_.i = getelementptr inbounds %"class.v8::FunctionCallbackInfo", ptr %this1.i, i32 0, i32 2
  %6 = load i32, ptr %length_.i, align 8
  %7 = load i32, ptr %i.addr.i, align 4
  %cmp2.i = icmp sle i32 %6, %7
  br i1 %cmp2.i, label %if.then.i, label %if.end.i

if.then.i:                                        ; preds = %lor.lhs.false.i, %for.body
  store ptr %this1.i, ptr %this.addr.i35, align 8
  %this1.i36 = load ptr, ptr %this.addr.i35, align 8
  %8 = load ptr, ptr %this1.i36, align 8
  %arrayidx.i = getelementptr inbounds i64, ptr %8, i64 1
  %9 = load ptr, ptr %arrayidx.i, align 8
  store ptr %9, ptr %isolate.addr.i.i, align 8
  %10 = load ptr, ptr %isolate.addr.i.i, align 8
  store ptr %10, ptr %isolate.addr.i48, align 8
  %11 = load ptr, ptr %isolate.addr.i.i, align 8
  store ptr %11, ptr %isolate.addr.i40, align 8
  store i32 4, ptr %index.addr.i, align 4
  %12 = load ptr, ptr %isolate.addr.i40, align 8
  %13 = ptrtoint ptr %12 to i64
  %add.i = add i64 %13, 576
  %14 = load i32, ptr %index.addr.i, align 4
  %mul.i = mul nsw i32 %14, 8
  %conv.i = sext i32 %mul.i to i64
  %add1.i = add i64 %add.i, %conv.i
  store i64 %add1.i, ptr %addr.i, align 8
  %15 = load i64, ptr %addr.i, align 8
  %16 = inttoptr i64 %15 to ptr
  store ptr %16, ptr %slot.i.i, align 8
  %17 = load ptr, ptr %slot.i.i, align 8
  store ptr %17, ptr %slot.addr.i, align 8
  %18 = load ptr, ptr %slot.addr.i, align 8
  store ptr %18, ptr %slot.addr.i58, align 8
  %19 = load ptr, ptr %slot.addr.i58, align 8
  store ptr %retval.i57, ptr %this.addr.i66, align 8
  store ptr %19, ptr %location.addr.i, align 8
  %this1.i67 = load ptr, ptr %this.addr.i66, align 8
  %20 = load ptr, ptr %location.addr.i, align 8
  store ptr %this1.i67, ptr %this.addr.i.i64, align 8
  store ptr %20, ptr %location.addr.i.i65, align 8
  %this1.i.i68 = load ptr, ptr %this.addr.i.i64, align 8
  %21 = load ptr, ptr %location.addr.i.i65, align 8
  store ptr %21, ptr %this1.i.i68, align 8
  %22 = load ptr, ptr %retval.i57, align 8
  store ptr %22, ptr %ref.tmp.i, align 8
  store ptr %retval.i50, ptr %this.addr.i61, align 8
  store ptr %ref.tmp.i, ptr %other.addr.i62, align 8
  %this1.i63 = load ptr, ptr %this.addr.i61, align 8
  %23 = load ptr, ptr %other.addr.i62, align 8
  call void @llvm.memcpy.p0.p0.i64(ptr align 8 %this1.i63, ptr align 8 %23, i64 8, i1 false)
  %24 = load ptr, ptr %retval.i50, align 8
  store ptr %24, ptr %retval.i.i, align 8
  %25 = load ptr, ptr %retval.i.i, align 8
  store ptr %25, ptr %agg.tmp.i, align 8
  %26 = load ptr, ptr %agg.tmp.i, align 8
  store ptr %26, ptr %that.i.i, align 8
  store ptr %retval.i32, ptr %this.addr.i.i, align 8
  %this3.i.i = load ptr, ptr %this.addr.i.i, align 8
  store ptr %this3.i.i, ptr %this.addr.i75, align 8
  store ptr %that.i.i, ptr %other.addr.i76, align 8
  %this1.i77 = load ptr, ptr %this.addr.i75, align 8
  %27 = load ptr, ptr %other.addr.i76, align 8
  call void @llvm.memcpy.p0.p0.i64(ptr align 8 %this1.i77, ptr align 8 %27, i64 8, i1 false)
  br label %_ZNK2v820FunctionCallbackInfoINS_5ValueEEixEi.exit

if.end.i:                                         ; preds = %lor.lhs.false.i
  %values_.i = getelementptr inbounds %"class.v8::FunctionCallbackInfo", ptr %this1.i, i32 0, i32 1
  %28 = load ptr, ptr %values_.i, align 8
  %29 = load i32, ptr %i.addr.i, align 4
  %idx.ext.i = sext i32 %29 to i64
  %add.ptr.i = getelementptr inbounds i64, ptr %28, i64 %idx.ext.i
  store ptr %add.ptr.i, ptr %slot.addr.i.i, align 8
  %30 = load ptr, ptr %slot.addr.i.i, align 8
  store ptr %30, ptr %slot.addr.i19.i, align 8
  %31 = load ptr, ptr %slot.addr.i19.i, align 8
  store ptr %retval.i18.i, ptr %this.addr.i21.i, align 8
  store ptr %31, ptr %location.addr.i.i, align 8
  %this1.i22.i = load ptr, ptr %this.addr.i21.i, align 8
  %32 = load ptr, ptr %location.addr.i.i, align 8
  store ptr %this1.i22.i, ptr %this.addr.i.i.i, align 8
  store ptr %32, ptr %location.addr.i.i.i, align 8
  %this1.i.i.i = load ptr, ptr %this.addr.i.i.i, align 8
  %33 = load ptr, ptr %location.addr.i.i.i, align 8
  store ptr %33, ptr %this1.i.i.i, align 8
  %34 = load ptr, ptr %retval.i18.i, align 8
  store ptr %34, ptr %ref.tmp.i.i, align 8
  store ptr %retval.i16.i, ptr %this.addr.i20.i, align 8
  store ptr %ref.tmp.i.i, ptr %other.addr.i.i, align 8
  %this1.i.i = load ptr, ptr %this.addr.i20.i, align 8
  %35 = load ptr, ptr %other.addr.i.i, align 8
  call void @llvm.memcpy.p0.p0.i64(ptr align 8 %this1.i.i, ptr align 8 %35, i64 8, i1 false)
  %36 = load ptr, ptr %retval.i16.i, align 8
  store ptr %36, ptr %retval.i32, align 8
  br label %_ZNK2v820FunctionCallbackInfoINS_5ValueEEixEi.exit

_ZNK2v820FunctionCallbackInfoINS_5ValueEEixEi.exit: ; preds = %if.end.i, %if.then.i
  %37 = load ptr, ptr %retval.i32, align 8
  %coerce.dive = getelementptr inbounds %"class.v8::Local", ptr %agg.tmp, i32 0, i32 0
  %coerce.dive3 = getelementptr inbounds %"class.v8::LocalBase", ptr %coerce.dive, i32 0, i32 0
  %coerce.dive4 = getelementptr inbounds %"class.v8::IndirectHandleBase", ptr %coerce.dive3, i32 0, i32 0
  store ptr %37, ptr %coerce.dive4, align 8
  %coerce.dive5 = getelementptr inbounds %"class.v8::Local", ptr %agg.tmp, i32 0, i32 0
  %coerce.dive6 = getelementptr inbounds %"class.v8::LocalBase", ptr %coerce.dive5, i32 0, i32 0
  %coerce.dive7 = getelementptr inbounds %"class.v8::IndirectHandleBase", ptr %coerce.dive6, i32 0, i32 0
  %38 = load ptr, ptr %coerce.dive7, align 8
  %call8 = call noundef ptr @_ZN6v8impl23JsValueFromV8LocalValueEN2v85LocalINS0_5ValueEEE(ptr %38)
  %39 = load ptr, ptr %buffer.addr, align 8
  %40 = load i64, ptr %i, align 8
  %arrayidx = getelementptr inbounds ptr, ptr %39, i64 %40
  store ptr %call8, ptr %arrayidx, align 8
  br label %for.inc

for.inc:                                          ; preds = %_ZNK2v820FunctionCallbackInfoINS_5ValueEEixEi.exit
  %41 = load i64, ptr %i, align 8
  %add = add i64 %41, 1
  store i64 %add, ptr %i, align 8
  br label %for.cond, !llvm.loop !9

for.end:                                          ; preds = %for.cond
  %42 = load i64, ptr %i, align 8
  %43 = load i64, ptr %buffer_length.addr, align 8
  %cmp9 = icmp ult i64 %42, %43
  br i1 %cmp9, label %if.then, label %if.end

if.then:                                          ; preds = %for.end
  %_cbinfo12 = getelementptr inbounds %"class.v8impl::(anonymous namespace)::CallbackWrapperBase", ptr %this1, i32 0, i32 1
  %44 = load ptr, ptr %_cbinfo12, align 8
  store ptr %44, ptr %this.addr.i37, align 8
  %this1.i38 = load ptr, ptr %this.addr.i37, align 8
  %45 = load ptr, ptr %this1.i38, align 8
  %arrayidx.i39 = getelementptr inbounds i64, ptr %45, i64 1
  %46 = load ptr, ptr %arrayidx.i39, align 8
  store ptr %46, ptr %isolate.addr.i, align 8
  %47 = load ptr, ptr %isolate.addr.i, align 8
  store ptr %47, ptr %isolate.addr.i49, align 8
  %48 = load ptr, ptr %isolate.addr.i, align 8
  store ptr %48, ptr %isolate.addr.i41, align 8
  store i32 4, ptr %index.addr.i42, align 4
  %49 = load ptr, ptr %isolate.addr.i41, align 8
  %50 = ptrtoint ptr %49 to i64
  %add.i44 = add i64 %50, 576
  %51 = load i32, ptr %index.addr.i42, align 4
  %mul.i45 = mul nsw i32 %51, 8
  %conv.i46 = sext i32 %mul.i45 to i64
  %add1.i47 = add i64 %add.i44, %conv.i46
  store i64 %add1.i47, ptr %addr.i43, align 8
  %52 = load i64, ptr %addr.i43, align 8
  %53 = inttoptr i64 %52 to ptr
  store ptr %53, ptr %slot.i, align 8
  %54 = load ptr, ptr %slot.i, align 8
  store ptr %54, ptr %slot.addr.i52, align 8
  %55 = load ptr, ptr %slot.addr.i52, align 8
  store ptr %55, ptr %slot.addr.i56, align 8
  %56 = load ptr, ptr %slot.addr.i56, align 8
  store ptr %retval.i55, ptr %this.addr.i71, align 8
  store ptr %56, ptr %location.addr.i72, align 8
  %this1.i73 = load ptr, ptr %this.addr.i71, align 8
  %57 = load ptr, ptr %location.addr.i72, align 8
  store ptr %this1.i73, ptr %this.addr.i.i69, align 8
  store ptr %57, ptr %location.addr.i.i70, align 8
  %this1.i.i74 = load ptr, ptr %this.addr.i.i69, align 8
  %58 = load ptr, ptr %location.addr.i.i70, align 8
  store ptr %58, ptr %this1.i.i74, align 8
  %59 = load ptr, ptr %retval.i55, align 8
  store ptr %59, ptr %ref.tmp.i53, align 8
  store ptr %retval.i51, ptr %this.addr.i59, align 8
  store ptr %ref.tmp.i53, ptr %other.addr.i, align 8
  %this1.i60 = load ptr, ptr %this.addr.i59, align 8
  %60 = load ptr, ptr %other.addr.i, align 8
  call void @llvm.memcpy.p0.p0.i64(ptr align 8 %this1.i60, ptr align 8 %60, i64 8, i1 false)
  %61 = load ptr, ptr %retval.i51, align 8
  store ptr %61, ptr %retval.i, align 8
  %62 = load ptr, ptr %retval.i, align 8
  %coerce.dive15 = getelementptr inbounds %"class.v8::Local.47", ptr %agg.tmp11, i32 0, i32 0
  %coerce.dive16 = getelementptr inbounds %"class.v8::LocalBase.48", ptr %coerce.dive15, i32 0, i32 0
  %coerce.dive17 = getelementptr inbounds %"class.v8::IndirectHandleBase", ptr %coerce.dive16, i32 0, i32 0
  store ptr %62, ptr %coerce.dive17, align 8
  %coerce.dive18 = getelementptr inbounds %"class.v8::Local.47", ptr %agg.tmp11, i32 0, i32 0
  %coerce.dive19 = getelementptr inbounds %"class.v8::LocalBase.48", ptr %coerce.dive18, i32 0, i32 0
  %coerce.dive20 = getelementptr inbounds %"class.v8::IndirectHandleBase", ptr %coerce.dive19, i32 0, i32 0
  %63 = load ptr, ptr %coerce.dive20, align 8
  store ptr %63, ptr %that.i, align 8
  store ptr %agg.tmp10, ptr %this.addr.i, align 8
  %this3.i = load ptr, ptr %this.addr.i, align 8
  store ptr %this3.i, ptr %this.addr.i78, align 8
  store ptr %that.i, ptr %other.addr.i79, align 8
  %this1.i80 = load ptr, ptr %this.addr.i78, align 8
  %64 = load ptr, ptr %other.addr.i79, align 8
  call void @llvm.memcpy.p0.p0.i64(ptr align 8 %this1.i80, ptr align 8 %64, i64 8, i1 false)
  %coerce.dive21 = getelementptr inbounds %"class.v8::Local", ptr %agg.tmp10, i32 0, i32 0
  %coerce.dive22 = getelementptr inbounds %"class.v8::LocalBase", ptr %coerce.dive21, i32 0, i32 0
  %coerce.dive23 = getelementptr inbounds %"class.v8::IndirectHandleBase", ptr %coerce.dive22, i32 0, i32 0
  %65 = load ptr, ptr %coerce.dive23, align 8
  %call24 = call noundef ptr @_ZN6v8impl23JsValueFromV8LocalValueEN2v85LocalINS0_5ValueEEE(ptr %65)
  store ptr %call24, ptr %undefined, align 8
  br label %for.cond25

for.cond25:                                       ; preds = %for.inc29, %if.then
  %66 = load i64, ptr %i, align 8
  %67 = load i64, ptr %buffer_length.addr, align 8
  %cmp26 = icmp ult i64 %66, %67
  br i1 %cmp26, label %for.body27, label %for.end31

for.body27:                                       ; preds = %for.cond25
  %68 = load ptr, ptr %undefined, align 8
  %69 = load ptr, ptr %buffer.addr, align 8
  %70 = load i64, ptr %i, align 8
  %arrayidx28 = getelementptr inbounds ptr, ptr %69, i64 %70
  store ptr %68, ptr %arrayidx28, align 8
  br label %for.inc29

for.inc29:                                        ; preds = %for.body27
  %71 = load i64, ptr %i, align 8
  %add30 = add i64 %71, 1
  store i64 %add30, ptr %i, align 8
  br label %for.cond25, !llvm.loop !10

for.end31:                                        ; preds = %for.cond25
  br label %if.end

if.end:                                           ; preds = %for.end31, %for.end
  ret void
}