; Function Attrs: mustprogress nofree norecurse nosync nounwind memory(read, argmem: readwrite, inaccessiblemem: none) uwtable
define internal void @_ZN6v8impl12_GLOBAL__N_123FunctionCallbackWrapper4ArgsEPP12napi_value__m(ptr nocapture noundef nonnull readonly align 8 dereferenceable(48) %this, ptr nocapture noundef writeonly %buffer, i64 noundef %buffer_length) unnamed_addr #18 align 2 {
entry:
  %_args_length = getelementptr inbounds i8, ptr %this, i64 16
  %0 = load i64, ptr %_args_length, align 8
  %.sroa.speculated = tail call i64 @llvm.umin.i64(i64 %0, i64 %buffer_length)
  %cmp19.not = icmp eq i64 %.sroa.speculated, 0
  br i1 %cmp19.not, label %for.end, label %for.body.lr.ph

for.body.lr.ph:                                   ; preds = %entry
  %_cbinfo = getelementptr inbounds i8, ptr %this, i64 32
  br label %for.body

for.body:                                         ; preds = %for.body.lr.ph, %_ZNK2v820FunctionCallbackInfoINS_5ValueEEixEi.exit
  %i.020 = phi i64 [ 0, %for.body.lr.ph ], [ %add, %_ZNK2v820FunctionCallbackInfoINS_5ValueEEixEi.exit ]
  %1 = load ptr, ptr %_cbinfo, align 8
  %conv = trunc i64 %i.020 to i32
  %cmp.i = icmp slt i32 %conv, 0
  br i1 %cmp.i, label %if.then.i, label %lor.lhs.false.i

lor.lhs.false.i:                                  ; preds = %for.body
  %length_.i = getelementptr inbounds i8, ptr %1, i64 16
  %2 = load i32, ptr %length_.i, align 8
  %cmp2.i.not = icmp sgt i32 %2, %conv
  br i1 %cmp2.i.not, label %if.end.i, label %if.then.i

if.then.i:                                        ; preds = %lor.lhs.false.i, %for.body
  %3 = load ptr, ptr %1, align 8
  %arrayidx.i = getelementptr inbounds i8, ptr %3, i64 8
  %4 = load ptr, ptr %arrayidx.i, align 8
  %5 = ptrtoint ptr %4 to i64
  %add1.i = add i64 %5, 608
  %6 = inttoptr i64 %add1.i to ptr
  br label %_ZNK2v820FunctionCallbackInfoINS_5ValueEEixEi.exit

if.end.i:                                         ; preds = %lor.lhs.false.i
  %values_.i = getelementptr inbounds i8, ptr %1, i64 8
  %7 = load ptr, ptr %values_.i, align 8
  %idx.ext.i = and i64 %i.020, 2147483647
  %add.ptr.i = getelementptr inbounds i64, ptr %7, i64 %idx.ext.i
  br label %_ZNK2v820FunctionCallbackInfoINS_5ValueEEixEi.exit

_ZNK2v820FunctionCallbackInfoINS_5ValueEEixEi.exit: ; preds = %if.end.i, %if.then.i
  %retval.i32.sroa.0.0 = phi ptr [ %6, %if.then.i ], [ %add.ptr.i, %if.end.i ]
  %arrayidx = getelementptr inbounds ptr, ptr %buffer, i64 %i.020
  store ptr %retval.i32.sroa.0.0, ptr %arrayidx, align 8
  %add = add nuw i64 %i.020, 1
  %exitcond.not = icmp eq i64 %add, %.sroa.speculated
  br i1 %exitcond.not, label %for.end, label %for.body, !llvm.loop !11

for.end:                                          ; preds = %_ZNK2v820FunctionCallbackInfoINS_5ValueEEixEi.exit, %entry
  %cmp9 = icmp ult i64 %0, %buffer_length
  br i1 %cmp9, label %if.then, label %if.end

if.then:                                          ; preds = %for.end
  %_cbinfo12 = getelementptr inbounds i8, ptr %this, i64 32
  %8 = load ptr, ptr %_cbinfo12, align 8
  %9 = load ptr, ptr %8, align 8
  %arrayidx.i39 = getelementptr inbounds i8, ptr %9, i64 8
  %10 = load ptr, ptr %arrayidx.i39, align 8
  %11 = ptrtoint ptr %10 to i64
  %add1.i47 = add i64 %11, 608
  %12 = inttoptr i64 %add1.i47 to ptr
  br label %for.body27

for.body27:                                       ; preds = %if.then, %for.body27
  %i.122 = phi i64 [ %.sroa.speculated, %if.then ], [ %add30, %for.body27 ]
  %arrayidx28 = getelementptr inbounds ptr, ptr %buffer, i64 %i.122
  store ptr %12, ptr %arrayidx28, align 8
  %add30 = add nuw i64 %i.122, 1
  %exitcond23.not = icmp eq i64 %add30, %buffer_length
  br i1 %exitcond23.not, label %if.end, label %for.body27, !llvm.loop !12

if.end:                                           ; preds = %for.body27, %for.end
  ret void
}